target datalayout = "e-m:e-p270:32:32-p271:32:32-p272:64:64-i64:64-i128:128-f80:128-n8:16:32:64-S128"
target triple = "x86_64-pc-linux-gnu"

%struct.sid_to_gid_t = type { i16, i8 }
%struct.hb_sorted_array_t = type { %struct.hb_array_t }
%struct.hb_array_t = type { ptr, i32, i32 }

; Function Attrs: inlinehint mustprogress nounwind uwtable
define internal noundef zeroext i1 @_ZL15hb_bsearch_implIK12sid_to_gid_tjJEEbPjRKT0_PT_mmPFiPKvS9_DpT1_ESB_(ptr noundef %0, ptr noundef nonnull align 4 dereferenceable(4) %1, ptr noundef %2, i64 noundef %3, i64 noundef %4, ptr noundef %5) #1 {
  %7 = alloca i1, align 1
  %8 = alloca ptr, align 8
  %9 = alloca ptr, align 8
  %10 = alloca ptr, align 8
  %11 = alloca i64, align 8
  %12 = alloca i64, align 8
  %13 = alloca ptr, align 8
  %14 = alloca i32, align 4
  %15 = alloca i32, align 4
  %16 = alloca i32, align 4
  %17 = alloca ptr, align 8
  %18 = alloca i32, align 4
  %19 = alloca i32, align 4
  store ptr %0, ptr %8, align 8, !tbaa !22
  store ptr %1, ptr %9, align 8, !tbaa !22
  store ptr %2, ptr %10, align 8, !tbaa !16
  store i64 %3, ptr %11, align 8, !tbaa !338
  store i64 %4, ptr %12, align 8, !tbaa !338
  store ptr %5, ptr %13, align 8, !tbaa !280
  call void @llvm.lifetime.start.p0(i64 4, ptr %14) #8
  store i32 0, ptr %14, align 4, !tbaa !4
  call void @llvm.lifetime.start.p0(i64 4, ptr %15) #8
  %20 = load i64, ptr %11, align 8, !tbaa !338
  %21 = trunc i64 %20 to i32
  %22 = sub nsw i32 %21, 1
  store i32 %22, ptr %15, align 4, !tbaa !4
  br label %23

23:                                               ; preds = %60, %6
  %24 = load i32, ptr %14, align 4, !tbaa !4
  %25 = load i32, ptr %15, align 4, !tbaa !4
  %26 = icmp sle i32 %24, %25
  br i1 %26, label %27, label %61

27:                                               ; preds = %23
  call void @llvm.lifetime.start.p0(i64 4, ptr %16) #8
  %28 = load i32, ptr %14, align 4, !tbaa !4
  %29 = load i32, ptr %15, align 4, !tbaa !4
  %30 = add i32 %28, %29
  %31 = udiv i32 %30, 2
  store i32 %31, ptr %16, align 4, !tbaa !4
  call void @llvm.lifetime.start.p0(i64 8, ptr %17) #8
  %32 = load ptr, ptr %10, align 8, !tbaa !16
  %33 = load i32, ptr %16, align 4, !tbaa !4
  %34 = sext i32 %33 to i64
  %35 = load i64, ptr %12, align 8, !tbaa !338
  %36 = mul i64 %34, %35
  %37 = getelementptr inbounds nuw i8, ptr %32, i64 %36
  store ptr %37, ptr %17, align 8, !tbaa !16
  call void @llvm.lifetime.start.p0(i64 4, ptr %18) #8
  %38 = load ptr, ptr %13, align 8, !tbaa !280
  %39 = load ptr, ptr %9, align 8, !tbaa !22
  %40 = load ptr, ptr %17, align 8, !tbaa !16
  %41 = call noundef i32 %38(ptr noundef %39, ptr noundef %40)
  store i32 %41, ptr %18, align 4, !tbaa !4
  %42 = load i32, ptr %18, align 4, !tbaa !4
  %43 = icmp slt i32 %42, 0
  br i1 %43, label %44, label %47

44:                                               ; preds = %27
  %45 = load i32, ptr %16, align 4, !tbaa !4
  %46 = sub nsw i32 %45, 1
  store i32 %46, ptr %15, align 4, !tbaa !4
  br label %57

47:                                               ; preds = %27
  %48 = load i32, ptr %18, align 4, !tbaa !4
  %49 = icmp sgt i32 %48, 0
  br i1 %49, label %50, label %53

50:                                               ; preds = %47
  %51 = load i32, ptr %16, align 4, !tbaa !4
  %52 = add nsw i32 %51, 1
  store i32 %52, ptr %14, align 4, !tbaa !4
  br label %56

53:                                               ; preds = %47
  %54 = load i32, ptr %16, align 4, !tbaa !4
  %55 = load ptr, ptr %8, align 8, !tbaa !22
  store i32 %54, ptr %55, align 4, !tbaa !4
  store i1 true, ptr %7, align 1
  store i32 1, ptr %19, align 4
  br label %58

56:                                               ; preds = %50
  br label %57

57:                                               ; preds = %56, %44
  store i32 0, ptr %19, align 4
  br label %58

58:                                               ; preds = %57, %53
  call void @llvm.lifetime.end.p0(i64 4, ptr %18) #8
  call void @llvm.lifetime.end.p0(i64 8, ptr %17) #8
  call void @llvm.lifetime.end.p0(i64 4, ptr %16) #8
  %59 = load i32, ptr %19, align 4
  switch i32 %59, label %64 [
    i32 0, label %60
  ]

60:                                               ; preds = %58
  br label %23, !llvm.loop !353

61:                                               ; preds = %23
  %62 = load i32, ptr %14, align 4, !tbaa !4
  %63 = load ptr, ptr %8, align 8, !tbaa !22
  store i32 %62, ptr %63, align 4, !tbaa !4
  store i1 false, ptr %7, align 1
  store i32 1, ptr %19, align 4
  br label %64

64:                                               ; preds = %61, %58
  call void @llvm.lifetime.end.p0(i64 4, ptr %15) #8
  call void @llvm.lifetime.end.p0(i64 4, ptr %14) #8
  %65 = load i1, ptr %7, align 1
  ret i1 %65
}

; Function Attrs: mustprogress nounwind uwtable
define linkonce_odr dso_local void @_ZN10hb_array_tIK12sid_to_gid_tEC2EPS1_j(ptr noundef nonnull align 8 dereferenceable(16) %0, ptr noundef %1, i32 noundef %2) unnamed_addr #0 comdat align 2 {
  %4 = alloca ptr, align 8
  %5 = alloca ptr, align 8
  %6 = alloca i32, align 4
  store ptr %0, ptr %4, align 8, !tbaa !347
  store ptr %1, ptr %5, align 8, !tbaa !16
  store i32 %2, ptr %6, align 4, !tbaa !4
  %7 = load ptr, ptr %4, align 8
  %8 = getelementptr inbounds nuw %struct.hb_array_t, ptr %7, i32 0, i32 0
  %9 = load ptr, ptr %5, align 8, !tbaa !16
  store ptr %9, ptr %8, align 8, !tbaa !24
  %10 = getelementptr inbounds nuw %struct.hb_array_t, ptr %7, i32 0, i32 1
  %11 = load i32, ptr %6, align 4, !tbaa !4
  store i32 %11, ptr %10, align 8, !tbaa !349
  %12 = getelementptr inbounds nuw %struct.hb_array_t, ptr %7, i32 0, i32 2
  store i32 0, ptr %12, align 4, !tbaa !350
  ret void
}

; Function Attrs: mustprogress nounwind uwtable
define linkonce_odr dso_local noundef zeroext i1 @_ZNK17hb_sorted_array_tIK12sid_to_gid_tE12bsearch_implIjJEEEbRKT_PjDpT0_(ptr noundef nonnull align 8 dereferenceable(16) %0, ptr noundef nonnull align 4 dereferenceable(4) %1, ptr noundef %2) #0 comdat align 2 {
  %4 = alloca ptr, align 8
  %5 = alloca ptr, align 8
  %6 = alloca ptr, align 8
  store ptr %0, ptr %4, align 8, !tbaa !20
  store ptr %1, ptr %5, align 8, !tbaa !22
  store ptr %2, ptr %6, align 8, !tbaa !22
  %7 = load ptr, ptr %4, align 8
  %8 = load ptr, ptr %6, align 8, !tbaa !22
  %9 = load ptr, ptr %5, align 8, !tbaa !22
  %10 = getelementptr inbounds nuw %struct.hb_array_t, ptr %7, i32 0, i32 0
  %11 = load ptr, ptr %10, align 8, !tbaa !24
  %12 = getelementptr inbounds nuw %struct.hb_array_t, ptr %7, i32 0, i32 1
  %13 = load i32, ptr %12, align 8, !tbaa !349
  %14 = zext i32 %13 to i64
  %15 = call noundef zeroext i1 @_ZL15hb_bsearch_implIK12sid_to_gid_tjJEEbPjRKT0_PT_mmPFiPKvS9_DpT1_ESB_(ptr noundef %8, ptr noundef nonnull align 4 dereferenceable(4) %9, ptr noundef %11, i64 noundef %14, i64 noundef 4, ptr noundef @_ZL14_hb_cmp_methodIjK12sid_to_gid_tJEEiPKvS3_DpT1_)
  ret i1 %15
}

; Function Attrs: mustprogress nounwind uwtable
define linkonce_odr dso_local void @_ZN10hb_array_tIK12sid_to_gid_tEC2ILj165EEERAT__S1_(ptr noundef nonnull align 8 dereferenceable(16) %0, ptr noundef nonnull align 2 dereferenceable(660) %1) unnamed_addr #0 comdat align 2 {
  %3 = alloca ptr, align 8
  %4 = alloca ptr, align 8
  store ptr %0, ptr %3, align 8, !tbaa !347
  store ptr %1, ptr %4, align 8, !tbaa !16
  %5 = load ptr, ptr %3, align 8
  %6 = load ptr, ptr %4, align 8, !tbaa !16
  %7 = getelementptr inbounds [165 x %struct.sid_to_gid_t], ptr %6, i64 0, i64 0
  call void @_ZN10hb_array_tIK12sid_to_gid_tEC2EPS1_j(ptr noundef nonnull align 8 dereferenceable(16) %5, ptr noundef %7, i32 noundef 165)
  ret void
}

; Function Attrs: mustprogress nounwind uwtable
define linkonce_odr dso_local noundef zeroext i1 @_ZNK17hb_sorted_array_tIK12sid_to_gid_tE5bfindIjEEbRKT_Pj14hb_not_found_tj(ptr noundef nonnull align 8 dereferenceable(16) %0, ptr noundef nonnull align 4 dereferenceable(4) %1, ptr noundef %2, i32 noundef %3, i32 noundef %4) #0 comdat align 2 {
  %6 = alloca i1, align 1
  %7 = alloca ptr, align 8
  %8 = alloca ptr, align 8
  %9 = alloca ptr, align 8
  %10 = alloca i32, align 4
  %11 = alloca i32, align 4
  %12 = alloca i32, align 4
  %13 = alloca i32, align 4
  store ptr %0, ptr %7, align 8, !tbaa !20
  store ptr %1, ptr %8, align 8, !tbaa !22
  store ptr %2, ptr %9, align 8, !tbaa !22
  store i32 %3, ptr %10, align 4, !tbaa !351
  store i32 %4, ptr %11, align 4, !tbaa !4
  %14 = load ptr, ptr %7, align 8
  call void @llvm.lifetime.start.p0(i64 4, ptr %12) #8
  %15 = load ptr, ptr %8, align 8, !tbaa !22
  %16 = call noundef zeroext i1 @_ZNK17hb_sorted_array_tIK12sid_to_gid_tE12bsearch_implIjJEEEbRKT_PjDpT0_(ptr noundef nonnull align 8 dereferenceable(16) %14, ptr noundef nonnull align 4 dereferenceable(4) %15, ptr noundef %12)
  br i1 %16, label %17, label %24

17:                                               ; preds = %5
  %18 = load ptr, ptr %9, align 8, !tbaa !22
  %19 = icmp ne ptr %18, null
  br i1 %19, label %20, label %23

20:                                               ; preds = %17
  %21 = load i32, ptr %12, align 4, !tbaa !4
  %22 = load ptr, ptr %9, align 8, !tbaa !22
  store i32 %21, ptr %22, align 4, !tbaa !4
  br label %23

23:                                               ; preds = %20, %17
  store i1 true, ptr %6, align 1
  store i32 1, ptr %13, align 4
  br label %37

24:                                               ; preds = %5
  %25 = load ptr, ptr %9, align 8, !tbaa !22
  %26 = icmp ne ptr %25, null
  br i1 %26, label %27, label %36

27:                                               ; preds = %24
  %28 = load i32, ptr %10, align 4, !tbaa !351
  switch i32 %28, label %35 [
    i32 0, label %35
    i32 1, label %29
    i32 2, label %32
  ]

29:                                               ; preds = %27
  %30 = load i32, ptr %11, align 4, !tbaa !4
  %31 = load ptr, ptr %9, align 8, !tbaa !22
  store i32 %30, ptr %31, align 4, !tbaa !4
  br label %35

32:                                               ; preds = %27
  %33 = load i32, ptr %12, align 4, !tbaa !4
  %34 = load ptr, ptr %9, align 8, !tbaa !22
  store i32 %33, ptr %34, align 4, !tbaa !4
  br label %35

35:                                               ; preds = %27, %32, %29, %27
  br label %36

36:                                               ; preds = %35, %24
  store i1 false, ptr %6, align 1
  store i32 1, ptr %13, align 4
  br label %37

37:                                               ; preds = %36, %23
  call void @llvm.lifetime.end.p0(i64 4, ptr %12) #8
  %38 = load i1, ptr %6, align 1
  ret i1 %38
}

; Function Attrs: mustprogress nounwind uwtable
define linkonce_odr dso_local void @_ZN17hb_sorted_array_tIK12sid_to_gid_tEC2ILj165EEERAT__S1_(ptr noundef nonnull align 8 dereferenceable(16) %0, ptr noundef nonnull align 2 dereferenceable(660) %1) unnamed_addr #0 comdat align 2 {
  %3 = alloca ptr, align 8
  %4 = alloca ptr, align 8
  store ptr %0, ptr %3, align 8, !tbaa !20
  store ptr %1, ptr %4, align 8, !tbaa !16
  %5 = load ptr, ptr %3, align 8
  %6 = load ptr, ptr %4, align 8, !tbaa !16
  call void @_ZN10hb_array_tIK12sid_to_gid_tEC2ILj165EEERAT__S1_(ptr noundef nonnull align 8 dereferenceable(16) %5, ptr noundef nonnull align 2 dereferenceable(660) %6)
  ret void
}

; Function Attrs: mustprogress nounwind uwtable
define linkonce_odr dso_local noundef ptr @_ZN17hb_sorted_array_tIK12sid_to_gid_tE7bsearchIjEEPS1_RKT_S4_(ptr noundef nonnull align 8 dereferenceable(16) %0, ptr noundef nonnull align 4 dereferenceable(4) %1, ptr noundef %2) #0 comdat align 2 {
  %4 = alloca ptr, align 8
  %5 = alloca ptr, align 8
  %6 = alloca ptr, align 8
  %7 = alloca i32, align 4
  store ptr %0, ptr %4, align 8, !tbaa !20
  store ptr %1, ptr %5, align 8, !tbaa !22
  store ptr %2, ptr %6, align 8, !tbaa !16
  %8 = load ptr, ptr %4, align 8
  call void @llvm.lifetime.start.p0(i64 4, ptr %7) #8
  %9 = load ptr, ptr %5, align 8, !tbaa !22
  %10 = call noundef zeroext i1 @_ZNK17hb_sorted_array_tIK12sid_to_gid_tE5bfindIjEEbRKT_Pj14hb_not_found_tj(ptr noundef nonnull align 8 dereferenceable(16) %8, ptr noundef nonnull align 4 dereferenceable(4) %9, ptr noundef %7, i32 noundef 0, i32 noundef -1)
  br i1 %10, label %11, label %17

11:                                               ; preds = %3
  %12 = getelementptr inbounds nuw %struct.hb_array_t, ptr %8, i32 0, i32 0
  %13 = load ptr, ptr %12, align 8, !tbaa !24
  %14 = load i32, ptr %7, align 4, !tbaa !4
  %15 = zext i32 %14 to i64
  %16 = getelementptr inbounds nuw %struct.sid_to_gid_t, ptr %13, i64 %15
  br label %19

17:                                               ; preds = %3
  %18 = load ptr, ptr %6, align 8, !tbaa !16
  br label %19

19:                                               ; preds = %17, %11
  %20 = phi ptr [ %16, %11 ], [ %18, %17 ]
  call void @llvm.lifetime.end.p0(i64 4, ptr %7) #8
  ret ptr %20
}

; Function Attrs: inlinehint mustprogress nounwind uwtable
define linkonce_odr dso_local { ptr, i64 } @_Z15hb_sorted_arrayIK12sid_to_gid_tLj165EE17hb_sorted_array_tIT_ERAT0__S3_(ptr noundef nonnull align 2 dereferenceable(660) %0) #1 comdat {
  %2 = alloca %struct.hb_sorted_array_t, align 8
  %3 = alloca ptr, align 8
  store ptr %0, ptr %3, align 8, !tbaa !16
  %4 = load ptr, ptr %3, align 8, !tbaa !16
  call void @_ZN17hb_sorted_array_tIK12sid_to_gid_tEC2ILj165EEERAT__S1_(ptr noundef nonnull align 8 dereferenceable(16) %2, ptr noundef nonnull align 2 dereferenceable(660) %4)
  %5 = getelementptr inbounds nuw %struct.hb_sorted_array_t, ptr %2, i32 0, i32 0
  %6 = load { ptr, i64 }, ptr %5, align 8
  ret { ptr, i64 } %6
}

; Function Attrs: mustprogress nounwind uwtable
define hidden noundef i32 @_ZN2OT4cff131lookup_expert_charset_for_glyphEj(i32 noundef %0) #0 align 2 {
  %2 = alloca i32, align 4
  %3 = alloca ptr, align 8
  %4 = alloca %struct.hb_sorted_array_t, align 8
  store i32 %0, ptr %2, align 4, !tbaa !4
  call void @llvm.lifetime.start.p0(i64 8, ptr %3) #8
  call void @llvm.lifetime.start.p0(i64 16, ptr %4) #8
  %5 = call { ptr, i64 } @_Z15hb_sorted_arrayIK12sid_to_gid_tLj165EE17hb_sorted_array_tIT_ERAT0__S3_(ptr noundef nonnull align 2 dereferenceable(660) @_ZL25expert_charset_sid_to_gid)
  %6 = getelementptr inbounds nuw %struct.hb_sorted_array_t, ptr %4, i32 0, i32 0
  %7 = getelementptr inbounds nuw { ptr, i64 }, ptr %6, i32 0, i32 0
  %8 = extractvalue { ptr, i64 } %5, 0
  store ptr %8, ptr %7, align 8
  %9 = getelementptr inbounds nuw { ptr, i64 }, ptr %6, i32 0, i32 1
  %10 = extractvalue { ptr, i64 } %5, 1
  store i64 %10, ptr %9, align 8
  %11 = call noundef ptr @_ZN17hb_sorted_array_tIK12sid_to_gid_tE7bsearchIjEEPS1_RKT_S4_(ptr noundef nonnull align 8 dereferenceable(16) %4, ptr noundef nonnull align 4 dereferenceable(4) %2, ptr noundef null)
  call void @llvm.lifetime.end.p0(i64 16, ptr %4) #8
  store ptr %11, ptr %3, align 8, !tbaa !16
  %12 = load ptr, ptr %3, align 8, !tbaa !16
  %13 = icmp ne ptr %12, null
  br i1 %13, label %14, label %19

14:                                               ; preds = %1
  %15 = load ptr, ptr %3, align 8, !tbaa !16
  %16 = getelementptr inbounds nuw %struct.sid_to_gid_t, ptr %15, i32 0, i32 1
  %17 = load i8, ptr %16, align 2, !tbaa !18
  %18 = zext i8 %17 to i32
  br label %20

19:                                               ; preds = %1
  br label %20

20:                                               ; preds = %19, %14
  %21 = phi i32 [ %18, %14 ], [ 0, %19 ]
  call void @llvm.lifetime.end.p0(i64 8, ptr %3) #8
  ret i32 %21
}